; Function Attrs: mustprogress uwtable
define internal noundef range(i32 0, 2) i32 @_ZL8argumentPKcS0_Pv(ptr noundef %0, ptr noundef %1, ptr noundef readnone %2) #3 {
  %4 = tail call noundef nonnull align 8 dereferenceable(8) ptr @_ZSt16__ostream_insertIcSt11char_traitsIcEERSt13basic_ostreamIT_T0_ES6_PKS3_l(ptr noundef nonnull align 8 dereferenceable(8) @_ZSt4cout, ptr noundef nonnull @.str.74, i64 noundef 15)
  %.not.i = icmp eq ptr %0, null
  br i1 %.not.i, label %5, label %13

5:                                                ; preds = %3
  %6 = load ptr, ptr @_ZSt4cout, align 8, !tbaa !28
  %7 = getelementptr i8, ptr %6, i64 -24
  %8 = load i64, ptr %7, align 8
  %9 = getelementptr inbounds i8, ptr @_ZSt4cout, i64 %8
  %10 = getelementptr inbounds nuw i8, ptr %9, i64 32
  %11 = load i32, ptr %10, align 8, !tbaa !52
  %12 = or i32 %11, 1
  tail call void @_ZNSt9basic_iosIcSt11char_traitsIcEE5clearESt12_Ios_Iostate(ptr noundef nonnull align 8 dereferenceable(264) %9, i32 noundef %12)
  br label %_ZStlsISt11char_traitsIcEERSt13basic_ostreamIcT_ES5_PKc.exit

13:                                               ; preds = %3
  %14 = tail call noundef i64 @strlen(ptr noundef nonnull dereferenceable(1) %0) #14
  %15 = tail call noundef nonnull align 8 dereferenceable(8) ptr @_ZSt16__ostream_insertIcSt11char_traitsIcEERSt13basic_ostreamIT_T0_ES6_PKS3_l(ptr noundef nonnull align 8 dereferenceable(8) @_ZSt4cout, ptr noundef nonnull %0, i64 noundef %14)
  br label %_ZStlsISt11char_traitsIcEERSt13basic_ostreamIcT_ES5_PKc.exit

_ZStlsISt11char_traitsIcEERSt13basic_ostreamIcT_ES5_PKc.exit: ; preds = %5, %13
  %16 = tail call noundef nonnull align 8 dereferenceable(8) ptr @_ZSt16__ostream_insertIcSt11char_traitsIcEERSt13basic_ostreamIT_T0_ES6_PKS3_l(ptr noundef nonnull align 8 dereferenceable(8) @_ZSt4cout, ptr noundef nonnull @.str.75, i64 noundef 10)
  %.not = icmp eq ptr %1, null
  %17 = select i1 %.not, ptr @.str.76, ptr %1
  %18 = tail call noundef i64 @strlen(ptr noundef nonnull dereferenceable(1) %17) #14
  %19 = tail call noundef nonnull align 8 dereferenceable(8) ptr @_ZSt16__ostream_insertIcSt11char_traitsIcEERSt13basic_ostreamIT_T0_ES6_PKS3_l(ptr noundef nonnull align 8 dereferenceable(8) @_ZSt4cout, ptr noundef nonnull %17, i64 noundef %18)
  %20 = tail call noundef nonnull align 8 dereferenceable(8) ptr @_ZSt16__ostream_insertIcSt11char_traitsIcEERSt13basic_ostreamIT_T0_ES6_PKS3_l(ptr noundef nonnull align 8 dereferenceable(8) @_ZSt4cout, ptr noundef nonnull @.str.72, i64 noundef 1)
  %21 = load ptr, ptr @_ZSt4cout, align 8, !tbaa !28
  %22 = getelementptr i8, ptr %21, i64 -24
  %23 = load i64, ptr %22, align 8
  %24 = getelementptr inbounds i8, ptr @_ZSt4cout, i64 %23
  %25 = getelementptr inbounds nuw i8, ptr %24, i64 240
  %26 = load ptr, ptr %25, align 8, !tbaa !30
  %.not.i.i.i = icmp eq ptr %26, null
  br i1 %.not.i.i.i, label %27, label %_ZSt13__check_facetISt5ctypeIcEERKT_PS3_.exit.i.i

27:                                               ; preds = %_ZStlsISt11char_traitsIcEERSt13basic_ostreamIcT_ES5_PKc.exit
  tail call void @_ZSt16__throw_bad_castv() #17
  unreachable

_ZSt13__check_facetISt5ctypeIcEERKT_PS3_.exit.i.i: ; preds = %_ZStlsISt11char_traitsIcEERSt13basic_ostreamIcT_ES5_PKc.exit
  %28 = getelementptr inbounds nuw i8, ptr %26, i64 56
  %29 = load i8, ptr %28, align 8, !tbaa !45
  %.not.i1.i.i = icmp eq i8 %29, 0
  br i1 %.not.i1.i.i, label %33, label %30

30:                                               ; preds = %_ZSt13__check_facetISt5ctypeIcEERKT_PS3_.exit.i.i
  %31 = getelementptr inbounds nuw i8, ptr %26, i64 67
  %32 = load i8, ptr %31, align 1, !tbaa !18
  br label %_ZSt4endlIcSt11char_traitsIcEERSt13basic_ostreamIT_T0_ES6_.exit

33:                                               ; preds = %_ZSt13__check_facetISt5ctypeIcEERKT_PS3_.exit.i.i
  tail call void @_ZNKSt5ctypeIcE13_M_widen_initEv(ptr noundef nonnull align 8 dereferenceable(570) %26)
  %34 = load ptr, ptr %26, align 8, !tbaa !28
  %35 = getelementptr inbounds nuw i8, ptr %34, i64 48
  %36 = load ptr, ptr %35, align 8
  %37 = tail call noundef signext i8 %36(ptr noundef nonnull align 8 dereferenceable(570) %26, i8 noundef signext 10)
  br label %_ZSt4endlIcSt11char_traitsIcEERSt13basic_ostreamIT_T0_ES6_.exit

_ZSt4endlIcSt11char_traitsIcEERSt13basic_ostreamIT_T0_ES6_.exit: ; preds = %30, %33
  %.0.i.i.i = phi i8 [ %32, %30 ], [ %37, %33 ]
  %38 = tail call noundef nonnull align 8 dereferenceable(8) ptr @_ZNSo3putEc(ptr noundef nonnull align 8 dereferenceable(8) @_ZSt4cout, i8 noundef signext %.0.i.i.i)
  %39 = tail call noundef nonnull align 8 dereferenceable(8) ptr @_ZNSo5flushEv(ptr noundef nonnull align 8 dereferenceable(8) %38)
  %.not4 = icmp eq ptr %2, inttoptr (i64 291 to ptr)
  br i1 %.not4, label %61, label %40

40:                                               ; preds = %_ZSt4endlIcSt11char_traitsIcEERSt13basic_ostreamIT_T0_ES6_.exit
  %41 = tail call noundef nonnull align 8 dereferenceable(8) ptr @_ZSt16__ostream_insertIcSt11char_traitsIcEERSt13basic_ostreamIT_T0_ES6_PKS3_l(ptr noundef nonnull align 8 dereferenceable(8) @_ZSt4cerr, ptr noundef nonnull @.str.73, i64 noundef 28)
  %42 = load ptr, ptr @_ZSt4cerr, align 8, !tbaa !28
  %43 = getelementptr i8, ptr %42, i64 -24
  %44 = load i64, ptr %43, align 8
  %45 = getelementptr inbounds i8, ptr @_ZSt4cerr, i64 %44
  %46 = getelementptr inbounds nuw i8, ptr %45, i64 240
  %47 = load ptr, ptr %46, align 8, !tbaa !30
  %.not.i.i.i6 = icmp eq ptr %47, null
  br i1 %.not.i.i.i6, label %48, label %_ZSt13__check_facetISt5ctypeIcEERKT_PS3_.exit.i.i7

48:                                               ; preds = %40
  tail call void @_ZSt16__throw_bad_castv() #17
  unreachable

_ZSt13__check_facetISt5ctypeIcEERKT_PS3_.exit.i.i7: ; preds = %40
  %49 = getelementptr inbounds nuw i8, ptr %47, i64 56
  %50 = load i8, ptr %49, align 8, !tbaa !45
  %.not.i1.i.i8 = icmp eq i8 %50, 0
  br i1 %.not.i1.i.i8, label %54, label %51

51:                                               ; preds = %_ZSt13__check_facetISt5ctypeIcEERKT_PS3_.exit.i.i7
  %52 = getelementptr inbounds nuw i8, ptr %47, i64 67
  %53 = load i8, ptr %52, align 1, !tbaa !18
  br label %_ZSt4endlIcSt11char_traitsIcEERSt13basic_ostreamIT_T0_ES6_.exit10

54:                                               ; preds = %_ZSt13__check_facetISt5ctypeIcEERKT_PS3_.exit.i.i7
  tail call void @_ZNKSt5ctypeIcE13_M_widen_initEv(ptr noundef nonnull align 8 dereferenceable(570) %47)
  %55 = load ptr, ptr %47, align 8, !tbaa !28
  %56 = getelementptr inbounds nuw i8, ptr %55, i64 48
  %57 = load ptr, ptr %56, align 8
  %58 = tail call noundef signext i8 %57(ptr noundef nonnull align 8 dereferenceable(570) %47, i8 noundef signext 10)
  br label %_ZSt4endlIcSt11char_traitsIcEERSt13basic_ostreamIT_T0_ES6_.exit10

_ZSt4endlIcSt11char_traitsIcEERSt13basic_ostreamIT_T0_ES6_.exit10: ; preds = %51, %54
  %.0.i.i.i9 = phi i8 [ %53, %51 ], [ %58, %54 ]
  %59 = tail call noundef nonnull align 8 dereferenceable(8) ptr @_ZNSo3putEc(ptr noundef nonnull align 8 dereferenceable(8) @_ZSt4cerr, i8 noundef signext %.0.i.i.i9)
  %60 = tail call noundef nonnull align 8 dereferenceable(8) ptr @_ZNSo5flushEv(ptr noundef nonnull align 8 dereferenceable(8) %59)
  br label %61

61:                                               ; preds = %_ZSt4endlIcSt11char_traitsIcEERSt13basic_ostreamIT_T0_ES6_.exit, %_ZSt4endlIcSt11char_traitsIcEERSt13basic_ostreamIT_T0_ES6_.exit10
  %.0 = phi i32 [ 0, %_ZSt4endlIcSt11char_traitsIcEERSt13basic_ostreamIT_T0_ES6_.exit10 ], [ 1, %_ZSt4endlIcSt11char_traitsIcEERSt13basic_ostreamIT_T0_ES6_.exit ]
  ret i32 %.0
}